; ModuleID = '25/451.cpp'
source_filename = "25/451.cpp"
target datalayout = "e-m:e-p270:32:32-p271:32:32-p272:64:64-i64:64-f80:128-n8:16:32:64-S128"
target triple = "x86_64-pc-linux-gnu"

%"class.std::ios_base::Init" = type { i8 }
%"class.std::basic_istream" = type { i32 (...)**, i64, %"class.std::basic_ios" }
%"class.std::basic_ios" = type { %"class.std::ios_base", %"class.std::basic_ostream"*, i8, i8, %"class.std::basic_streambuf"*, %"class.std::ctype"*, %"class.std::num_put"*, %"class.std::num_get"* }
%"class.std::ios_base" = type { i32 (...)**, i64, i64, i32, i32, i32, %"struct.std::ios_base::_Callback_list"*, %"struct.std::ios_base::_Words", [8 x %"struct.std::ios_base::_Words"], i32, %"struct.std::ios_base::_Words"*, %"class.std::locale" }
%"struct.std::ios_base::_Callback_list" = type { %"struct.std::ios_base::_Callback_list"*, void (i32, %"class.std::ios_base"*, i32)*, i32, i32 }
%"struct.std::ios_base::_Words" = type { i8*, i64 }
%"class.std::locale" = type { %"class.std::locale::_Impl"* }
%"class.std::locale::_Impl" = type { i32, %"class.std::locale::facet"**, i64, %"class.std::locale::facet"**, i8** }
%"class.std::locale::facet" = type <{ i32 (...)**, i32, [4 x i8] }>
%"class.std::basic_ostream" = type { i32 (...)**, %"class.std::basic_ios" }
%"class.std::basic_streambuf" = type { i32 (...)**, i8*, i8*, i8*, i8*, i8*, i8*, %"class.std::locale" }
%"class.std::ctype" = type <{ %"class.std::locale::facet.base", [4 x i8], %struct.__locale_struct*, i8, [7 x i8], i32*, i32*, i16*, i8, [256 x i8], [256 x i8], i8, [6 x i8] }>
%"class.std::locale::facet.base" = type <{ i32 (...)**, i32 }>
%struct.__locale_struct = type { [13 x %struct.__locale_data*], i16*, i32*, i32*, [13 x i8*] }
%struct.__locale_data = type opaque
%"class.std::num_put" = type { %"class.std::locale::facet.base", [4 x i8] }
%"class.std::num_get" = type { %"class.std::locale::facet.base", [4 x i8] }

@_ZStL8__ioinit = internal global %"class.std::ios_base::Init" zeroinitializer, align 1
@__dso_handle = external hidden global i8
@i = dso_local global i32 0, align 4
@k = dso_local global i32 0, align 4
@num = dso_local global [50 x i32] zeroinitializer, align 16
@temp = dso_local global [50 x i32] zeroinitializer, align 16
@_ZSt3cin = external dso_local global %"class.std::basic_istream", align 8
@_ZSt4cout = external dso_local global %"class.std::basic_ostream", align 8
@llvm.global_ctors = appending global [1 x { i32, void ()*, i8* }] [{ i32, void ()*, i8* } { i32 65535, void ()* @_GLOBAL__sub_I_451.cpp, i8* null }]

; Function Attrs: noinline uwtable
define internal void @__cxx_global_var_init() #0 section ".text.startup" {
  call void @_ZNSt8ios_base4InitC1Ev(%"class.std::ios_base::Init"* @_ZStL8__ioinit)
  %1 = call i32 @__cxa_atexit(void (i8*)* bitcast (void (%"class.std::ios_base::Init"*)* @_ZNSt8ios_base4InitD1Ev to void (i8*)*), i8* getelementptr inbounds (%"class.std::ios_base::Init", %"class.std::ios_base::Init"* @_ZStL8__ioinit, i32 0, i32 0), i8* @__dso_handle) #3
  ret void
}

declare dso_local void @_ZNSt8ios_base4InitC1Ev(%"class.std::ios_base::Init"*) unnamed_addr #1

; Function Attrs: nounwind
declare dso_local void @_ZNSt8ios_base4InitD1Ev(%"class.std::ios_base::Init"*) unnamed_addr #2

; Function Attrs: nounwind
declare dso_local i32 @__cxa_atexit(void (i8*)*, i8*, i8*) #3

; Function Attrs: noinline nounwind uwtable
define dso_local i32 @_Z3mulv() #4 {
  %1 = alloca i32, align 4
  store i32 0, i32* %1, align 4
  br label %2

2:                                                ; preds = %40, %0
  %3 = load i32, i32* %1, align 4
  %4 = icmp slt i32 %3, 50
  br i1 %4, label %5, label %43

5:                                                ; preds = %2
  %6 = load i32, i32* %1, align 4
  %7 = sext i32 %6 to i64
  %8 = getelementptr inbounds [50 x i32], [50 x i32]* @temp, i64 0, i64 %7
  %9 = load i32, i32* %8, align 4
  %10 = load i32, i32* %1, align 4
  %11 = sext i32 %10 to i64
  %12 = getelementptr inbounds [50 x i32], [50 x i32]* @num, i64 0, i64 %11
  %13 = load i32, i32* %12, align 4
  %14 = mul nsw i32 %13, 2
  %15 = add nsw i32 %9, %14
  %16 = load i32, i32* %1, align 4
  %17 = sext i32 %16 to i64
  %18 = getelementptr inbounds [50 x i32], [50 x i32]* @temp, i64 0, i64 %17
  store i32 %15, i32* %18, align 4
  %19 = load i32, i32* %1, align 4
  %20 = sext i32 %19 to i64
  %21 = getelementptr inbounds [50 x i32], [50 x i32]* @temp, i64 0, i64 %20
  %22 = load i32, i32* %21, align 4
  %23 = icmp sge i32 %22, 10
  br i1 %23, label %24, label %39

24:                                               ; preds = %5
  %25 = load i32, i32* %1, align 4
  %26 = add nsw i32 %25, 1
  %27 = sext i32 %26 to i64
  %28 = getelementptr inbounds [50 x i32], [50 x i32]* @temp, i64 0, i64 %27
  %29 = load i32, i32* %28, align 4
  %30 = add nsw i32 %29, 1
  store i32 %30, i32* %28, align 4
  %31 = load i32, i32* %1, align 4
  %32 = sext i32 %31 to i64
  %33 = getelementptr inbounds [50 x i32], [50 x i32]* @temp, i64 0, i64 %32
  %34 = load i32, i32* %33, align 4
  %35 = srem i32 %34, 10
  %36 = load i32, i32* %1, align 4
  %37 = sext i32 %36 to i64
  %38 = getelementptr inbounds [50 x i32], [50 x i32]* @temp, i64 0, i64 %37
  store i32 %35, i32* %38, align 4
  br label %39

39:                                               ; preds = %24, %5
  br label %40

40:                                               ; preds = %39
  %41 = load i32, i32* %1, align 4
  %42 = add nsw i32 %41, 1
  store i32 %42, i32* %1, align 4
  br label %2

43:                                               ; preds = %2
  store i32 0, i32* %1, align 4
  br label %44

44:                                               ; preds = %55, %43
  %45 = load i32, i32* %1, align 4
  %46 = icmp slt i32 %45, 50
  br i1 %46, label %47, label %58

47:                                               ; preds = %44
  %48 = load i32, i32* %1, align 4
  %49 = sext i32 %48 to i64
  %50 = getelementptr inbounds [50 x i32], [50 x i32]* @temp, i64 0, i64 %49
  %51 = load i32, i32* %50, align 4
  %52 = load i32, i32* %1, align 4
  %53 = sext i32 %52 to i64
  %54 = getelementptr inbounds [50 x i32], [50 x i32]* @num, i64 0, i64 %53
  store i32 %51, i32* %54, align 4
  br label %55

55:                                               ; preds = %47
  %56 = load i32, i32* %1, align 4
  %57 = add nsw i32 %56, 1
  store i32 %57, i32* %1, align 4
  br label %44

58:                                               ; preds = %44
  store i32 0, i32* %1, align 4
  br label %59

59:                                               ; preds = %66, %58
  %60 = load i32, i32* %1, align 4
  %61 = icmp slt i32 %60, 50
  br i1 %61, label %62, label %69

62:                                               ; preds = %59
  %63 = load i32, i32* %1, align 4
  %64 = sext i32 %63 to i64
  %65 = getelementptr inbounds [50 x i32], [50 x i32]* @temp, i64 0, i64 %64
  store i32 0, i32* %65, align 4
  br label %66

66:                                               ; preds = %62
  %67 = load i32, i32* %1, align 4
  %68 = add nsw i32 %67, 1
  store i32 %68, i32* %1, align 4
  br label %59

69:                                               ; preds = %59
  ret i32 0
}

; Function Attrs: noinline norecurse uwtable
define dso_local i32 @main() #5 {
  %1 = alloca i32, align 4
  store i32 0, i32* %1, align 4
  %2 = call dereferenceable(280) %"class.std::basic_istream"* @_ZNSirsERi(%"class.std::basic_istream"* @_ZSt3cin, i32* dereferenceable(4) @k)
  store i32 2, i32* getelementptr inbounds ([50 x i32], [50 x i32]* @num, i64 0, i64 0), align 16
  %3 = load i32, i32* @k, align 4
  %4 = icmp ne i32 %3, 0
  br i1 %4, label %5, label %43

5:                                                ; preds = %0
  store i32 0, i32* @i, align 4
  br label %6

6:                                                ; preds = %13, %5
  %7 = load i32, i32* @i, align 4
  %8 = load i32, i32* @k, align 4
  %9 = sub nsw i32 %8, 1
  %10 = icmp slt i32 %7, %9
  br i1 %10, label %11, label %16

11:                                               ; preds = %6
  %12 = call i32 @_Z3mulv()
  br label %13

13:                                               ; preds = %11
  %14 = load i32, i32* @i, align 4
  %15 = add nsw i32 %14, 1
  store i32 %15, i32* @i, align 4
  br label %6

16:                                               ; preds = %6
  store i32 1, i32* @i, align 4
  br label %17

17:                                               ; preds = %25, %16
  %18 = load i32, i32* @i, align 4
  %19 = sub nsw i32 50, %18
  %20 = sext i32 %19 to i64
  %21 = getelementptr inbounds [50 x i32], [50 x i32]* @num, i64 0, i64 %20
  %22 = load i32, i32* %21, align 4
  %23 = icmp eq i32 %22, 0
  br i1 %23, label %24, label %28

24:                                               ; preds = %17
  br label %25

25:                                               ; preds = %24
  %26 = load i32, i32* @i, align 4
  %27 = add nsw i32 %26, 1
  store i32 %27, i32* @i, align 4
  br label %17

28:                                               ; preds = %17
  br label %29

29:                                               ; preds = %39, %28
  %30 = load i32, i32* @i, align 4
  %31 = icmp sle i32 %30, 50
  br i1 %31, label %32, label %42

32:                                               ; preds = %29
  %33 = load i32, i32* @i, align 4
  %34 = sub nsw i32 50, %33
  %35 = sext i32 %34 to i64
  %36 = getelementptr inbounds [50 x i32], [50 x i32]* @num, i64 0, i64 %35
  %37 = load i32, i32* %36, align 4
  %38 = call dereferenceable(272) %"class.std::basic_ostream"* @_ZNSolsEi(%"class.std::basic_ostream"* @_ZSt4cout, i32 %37)
  br label %39

39:                                               ; preds = %32
  %40 = load i32, i32* @i, align 4
  %41 = add nsw i32 %40, 1
  store i32 %41, i32* @i, align 4
  br label %29

42:                                               ; preds = %29
  br label %45

43:                                               ; preds = %0
  %44 = call dereferenceable(272) %"class.std::basic_ostream"* @_ZNSolsEi(%"class.std::basic_ostream"* @_ZSt4cout, i32 1)
  br label %45

45:                                               ; preds = %43, %42
  ret i32 0
}

declare dso_local dereferenceable(280) %"class.std::basic_istream"* @_ZNSirsERi(%"class.std::basic_istream"*, i32* dereferenceable(4)) #1

declare dso_local dereferenceable(272) %"class.std::basic_ostream"* @_ZNSolsEi(%"class.std::basic_ostream"*, i32) #1

; Function Attrs: noinline uwtable
define internal void @_GLOBAL__sub_I_451.cpp() #0 section ".text.startup" {
  call void @__cxx_global_var_init()
  ret void
}


!llvm.module.flags = !{!0}
!llvm.ident = !{!1}

!0 = !{i32 1, !"wchar_size", i32 4}
!1 = !{!"clang version 10.0.0-4ubuntu1 "}
